; Function Attrs: nounwind uwtable
define ptr @l_Lake_buildLeanSharedLib___boxed(ptr noundef %0, ptr noundef %1, ptr noundef %2, ptr noundef %3, ptr noundef %4, ptr noundef %5, ptr noundef %6, ptr noundef %7, ptr noundef %8, ptr noundef %9, ptr noundef %10, ptr noundef %11, ptr noundef %12, ptr noundef %13) local_unnamed_addr #0 {
  %15 = ptrtoint ptr %6 to i64
  %16 = and i64 %15, 1
  %.not = icmp eq i64 %16, 0
  br i1 %.not, label %17, label %lean_dec.exit20

17:                                               ; preds = %14
  %18 = load i32, ptr %6, align 4, !tbaa !4
  %19 = icmp sgt i32 %18, 1
  br i1 %19, label %20, label %22, !prof !12

20:                                               ; preds = %17
  %21 = add nsw i32 %18, -1
  store i32 %21, ptr %6, align 4, !tbaa !4
  br label %lean_dec.exit20

22:                                               ; preds = %17
  %.not.i = icmp eq i32 %18, 0
  br i1 %.not.i, label %lean_dec.exit20, label %23

23:                                               ; preds = %22
  tail call void @lean_dec_ref_cold(ptr noundef nonnull %6) #5
  br label %lean_dec.exit20

lean_dec.exit20:                                  ; preds = %23, %22, %20, %14
  %24 = ptrtoint ptr %7 to i64
  %25 = and i64 %24, 1
  %.not25 = icmp eq i64 %25, 0
  br i1 %.not25, label %26, label %lean_dec.exit19

26:                                               ; preds = %lean_dec.exit20
  %27 = load i32, ptr %7, align 4, !tbaa !4
  %28 = icmp sgt i32 %27, 1
  br i1 %28, label %29, label %31, !prof !12

29:                                               ; preds = %26
  %30 = add nsw i32 %27, -1
  store i32 %30, ptr %7, align 4, !tbaa !4
  br label %lean_dec.exit19

31:                                               ; preds = %26
  %.not.i21 = icmp eq i32 %27, 0
  br i1 %.not.i21, label %lean_dec.exit19, label %32

32:                                               ; preds = %31
  tail call void @lean_dec_ref_cold(ptr noundef nonnull %7) #5
  br label %lean_dec.exit19

lean_dec.exit19:                                  ; preds = %32, %31, %29, %lean_dec.exit20
  %33 = load ptr, ptr @l_Lake_buildSharedLib___closed__1, align 8, !tbaa !9
  %34 = tail call ptr @l_Lake_Job_collectArray___rarg(ptr noundef %2, ptr noundef %33) #5
  tail call void @lean_inc_heartbeat() #5
  %35 = tail call noalias ptr @mi_malloc_small(i64 noundef 80) #5
  %36 = icmp eq ptr %35, null
  br i1 %36, label %37, label %l_Lake_buildLeanSharedLib.exit

37:                                               ; preds = %lean_dec.exit19
  tail call void @lean_internal_panic_out_of_memory() #6
  unreachable

l_Lake_buildLeanSharedLib.exit:                   ; preds = %lean_dec.exit19
  %38 = and i64 %15, 510
  %39 = or disjoint i64 %38, 1
  %40 = inttoptr i64 %39 to ptr
  %41 = and i64 %24, 510
  %42 = or disjoint i64 %41, 1
  %43 = inttoptr i64 %42 to ptr
  %44 = getelementptr inbounds nuw i8, ptr %35, i64 4
  store i32 1, ptr %35, align 4, !tbaa !4
  store i32 -184549296, ptr %44, align 4
  %45 = getelementptr inbounds nuw i8, ptr %35, i64 8
  store ptr @l_Lake_buildLeanSharedLib___lambda__4___boxed, ptr %45, align 8, !tbaa !9
  %46 = getelementptr inbounds nuw i8, ptr %35, i64 16
  store i16 14, ptr %46, align 8, !tbaa !15
  %47 = getelementptr inbounds nuw i8, ptr %35, i64 18
  store i16 7, ptr %47, align 2, !tbaa !15
  %48 = getelementptr inbounds nuw i8, ptr %35, i64 24
  store ptr %3, ptr %48, align 8, !tbaa !9
  %49 = getelementptr inbounds nuw i8, ptr %35, i64 32
  store ptr %5, ptr %49, align 8, !tbaa !9
  %50 = getelementptr inbounds nuw i8, ptr %35, i64 40
  store ptr %4, ptr %50, align 8, !tbaa !9
  %51 = getelementptr inbounds nuw i8, ptr %35, i64 48
  store ptr %1, ptr %51, align 8, !tbaa !9
  %52 = getelementptr inbounds nuw i8, ptr %35, i64 56
  store ptr %43, ptr %52, align 8, !tbaa !9
  %53 = getelementptr inbounds nuw i8, ptr %35, i64 64
  store ptr %0, ptr %53, align 8, !tbaa !9
  %54 = getelementptr inbounds nuw i8, ptr %35, i64 72
  store ptr %40, ptr %54, align 8, !tbaa !9
  %55 = load ptr, ptr @l_Task_Priority_default, align 8, !tbaa !9
  %56 = tail call ptr @l_Lake_Job_bindM___at_Lake_buildSharedLib___spec__7(ptr noundef %34, ptr noundef nonnull %35, ptr noundef %55, i8 noundef zeroext 0, ptr noundef %8, ptr noundef %9, ptr noundef %10, ptr noundef %11, ptr noundef %12, ptr noundef %13)
  %57 = ptrtoint ptr %2 to i64
  %58 = and i64 %57, 1
  %.not26 = icmp eq i64 %58, 0
  br i1 %.not26, label %59, label %lean_dec.exit

59:                                               ; preds = %l_Lake_buildLeanSharedLib.exit
  %60 = load i32, ptr %2, align 4, !tbaa !4
  %61 = icmp sgt i32 %60, 1
  br i1 %61, label %62, label %64, !prof !12

62:                                               ; preds = %59
  %63 = add nsw i32 %60, -1
  store i32 %63, ptr %2, align 4, !tbaa !4
  br label %lean_dec.exit

64:                                               ; preds = %59
  %.not.i23 = icmp eq i32 %60, 0
  br i1 %.not.i23, label %lean_dec.exit, label %65

65:                                               ; preds = %64
  tail call void @lean_dec_ref_cold(ptr noundef nonnull %2) #5
  br label %lean_dec.exit

lean_dec.exit:                                    ; preds = %65, %64, %62, %l_Lake_buildLeanSharedLib.exit
  ret ptr %56
}